target datalayout = "e-m:e-p270:32:32-p271:32:32-p272:64:64-i64:64-i128:128-f80:128-n8:16:32:64-S128"
target triple = "x86_64-pc-linux-gnu"

%struct.FT_GZipFileRec_ = type { ptr, ptr, ptr, %struct.z_stream_s, i64, [4096 x i8], [4096 x i8], i64, ptr, ptr }
%struct.z_stream_s = type { ptr, i32, i64, ptr, i32, i64, ptr, ptr, ptr, ptr, ptr, i32, i64, i64 }

; Function Attrs: nounwind uwtable
define internal i32 @ft_gzip_file_skip_output(ptr noundef %0, i64 noundef %1) #0 {
  %3 = alloca ptr, align 8
  %4 = alloca i64, align 8
  %5 = alloca i32, align 4
  %6 = alloca i64, align 8
  store ptr %0, ptr %3, align 8
  store i64 %1, ptr %4, align 8
  store i32 0, ptr %5, align 4
  br label %7

7:                                                ; preds = %45, %2
  %8 = load ptr, ptr %3, align 8
  %9 = getelementptr inbounds %struct.FT_GZipFileRec_, ptr %8, i32 0, i32 9
  %10 = load ptr, ptr %9, align 8
  %11 = load ptr, ptr %3, align 8
  %12 = getelementptr inbounds %struct.FT_GZipFileRec_, ptr %11, i32 0, i32 8
  %13 = load ptr, ptr %12, align 8
  %14 = ptrtoint ptr %10 to i64
  %15 = ptrtoint ptr %13 to i64
  %16 = sub i64 %14, %15
  store i64 %16, ptr %6, align 8
  %17 = load i64, ptr %6, align 8
  %18 = load i64, ptr %4, align 8
  %19 = icmp uge i64 %17, %18
  br i1 %19, label %20, label %22

20:                                               ; preds = %7
  %21 = load i64, ptr %4, align 8
  store i64 %21, ptr %6, align 8
  br label %22

22:                                               ; preds = %20, %7
  %23 = load i64, ptr %6, align 8
  %24 = load ptr, ptr %3, align 8
  %25 = getelementptr inbounds %struct.FT_GZipFileRec_, ptr %24, i32 0, i32 8
  %26 = load ptr, ptr %25, align 8
  %27 = getelementptr inbounds i8, ptr %26, i64 %23
  store ptr %27, ptr %25, align 8
  %28 = load i64, ptr %6, align 8
  %29 = load ptr, ptr %3, align 8
  %30 = getelementptr inbounds %struct.FT_GZipFileRec_, ptr %29, i32 0, i32 7
  %31 = load i64, ptr %30, align 8
  %32 = add i64 %31, %28
  store i64 %32, ptr %30, align 8
  %33 = load i64, ptr %6, align 8
  %34 = load i64, ptr %4, align 8
  %35 = sub i64 %34, %33
  store i64 %35, ptr %4, align 8
  %36 = load i64, ptr %4, align 8
  %37 = icmp eq i64 %36, 0
  br i1 %37, label %38, label %39

38:                                               ; preds = %22
  br label %46

39:                                               ; preds = %22
  %40 = load ptr, ptr %3, align 8
  %41 = call i32 @ft_gzip_file_fill_output(ptr noundef %40)
  store i32 %41, ptr %5, align 4
  %42 = load i32, ptr %5, align 4
  %43 = icmp ne i32 %42, 0
  br i1 %43, label %44, label %45

44:                                               ; preds = %39
  br label %46

45:                                               ; preds = %39
  br label %7

46:                                               ; preds = %44, %38
  %47 = load i32, ptr %5, align 4
  ret i32 %47
}

; Function Attrs: nounwind uwtable
define internal i32 @ft_gzip_file_reset(ptr noundef %0) #0 {
  %2 = alloca ptr, align 8
  %3 = alloca ptr, align 8
  %4 = alloca i32, align 4
  %5 = alloca ptr, align 8
  store ptr %0, ptr %2, align 8
  %6 = load ptr, ptr %2, align 8
  %7 = getelementptr inbounds %struct.FT_GZipFileRec_, ptr %6, i32 0, i32 0
  %8 = load ptr, ptr %7, align 8
  store ptr %8, ptr %3, align 8
  %9 = load ptr, ptr %3, align 8
  %10 = load ptr, ptr %2, align 8
  %11 = getelementptr inbounds %struct.FT_GZipFileRec_, ptr %10, i32 0, i32 4
  %12 = load i64, ptr %11, align 8
  %13 = call i32 @FT_Stream_Seek(ptr noundef %9, i64 noundef %12)
  store i32 %13, ptr %4, align 4
  %14 = icmp ne i32 %13, 0
  br i1 %14, label %47, label %15

15:                                               ; preds = %1
  %16 = load ptr, ptr %2, align 8
  %17 = getelementptr inbounds %struct.FT_GZipFileRec_, ptr %16, i32 0, i32 3
  store ptr %17, ptr %5, align 8
  %18 = load ptr, ptr %5, align 8
  %19 = call i32 @inflateReset(ptr noundef %18)
  %20 = load ptr, ptr %5, align 8
  %21 = getelementptr inbounds %struct.z_stream_s, ptr %20, i32 0, i32 1
  store i32 0, ptr %21, align 8
  %22 = load ptr, ptr %2, align 8
  %23 = getelementptr inbounds %struct.FT_GZipFileRec_, ptr %22, i32 0, i32 5
  %24 = getelementptr inbounds [4096 x i8], ptr %23, i64 0, i64 0
  %25 = load ptr, ptr %5, align 8
  %26 = getelementptr inbounds %struct.z_stream_s, ptr %25, i32 0, i32 0
  store ptr %24, ptr %26, align 8
  %27 = load ptr, ptr %5, align 8
  %28 = getelementptr inbounds %struct.z_stream_s, ptr %27, i32 0, i32 4
  store i32 0, ptr %28, align 8
  %29 = load ptr, ptr %2, align 8
  %30 = getelementptr inbounds %struct.FT_GZipFileRec_, ptr %29, i32 0, i32 6
  %31 = getelementptr inbounds [4096 x i8], ptr %30, i64 0, i64 0
  %32 = load ptr, ptr %5, align 8
  %33 = getelementptr inbounds %struct.z_stream_s, ptr %32, i32 0, i32 3
  store ptr %31, ptr %33, align 8
  %34 = load ptr, ptr %2, align 8
  %35 = getelementptr inbounds %struct.FT_GZipFileRec_, ptr %34, i32 0, i32 6
  %36 = getelementptr inbounds [4096 x i8], ptr %35, i64 0, i64 0
  %37 = getelementptr inbounds i8, ptr %36, i64 4096
  %38 = load ptr, ptr %2, align 8
  %39 = getelementptr inbounds %struct.FT_GZipFileRec_, ptr %38, i32 0, i32 9
  store ptr %37, ptr %39, align 8
  %40 = load ptr, ptr %2, align 8
  %41 = getelementptr inbounds %struct.FT_GZipFileRec_, ptr %40, i32 0, i32 9
  %42 = load ptr, ptr %41, align 8
  %43 = load ptr, ptr %2, align 8
  %44 = getelementptr inbounds %struct.FT_GZipFileRec_, ptr %43, i32 0, i32 8
  store ptr %42, ptr %44, align 8
  %45 = load ptr, ptr %2, align 8
  %46 = getelementptr inbounds %struct.FT_GZipFileRec_, ptr %45, i32 0, i32 7
  store i64 0, ptr %46, align 8
  br label %47

47:                                               ; preds = %15, %1
  %48 = load i32, ptr %4, align 4
  ret i32 %48
}

; Function Attrs: nounwind uwtable
define internal i64 @ft_gzip_file_io(ptr noundef %0, i64 noundef %1, ptr noundef %2, i64 noundef %3) #0 {
  %5 = alloca ptr, align 8
  %6 = alloca i64, align 8
  %7 = alloca ptr, align 8
  %8 = alloca i64, align 8
  %9 = alloca i64, align 8
  %10 = alloca i32, align 4
  %11 = alloca i64, align 8
  store ptr %0, ptr %5, align 8
  store i64 %1, ptr %6, align 8
  store ptr %2, ptr %7, align 8
  store i64 %3, ptr %8, align 8
  store i64 0, ptr %9, align 8
  %12 = load i64, ptr %6, align 8
  %13 = load ptr, ptr %5, align 8
  %14 = getelementptr inbounds %struct.FT_GZipFileRec_, ptr %13, i32 0, i32 7
  %15 = load i64, ptr %14, align 8
  %16 = icmp ult i64 %12, %15
  br i1 %16, label %17, label %24

17:                                               ; preds = %4
  %18 = load ptr, ptr %5, align 8
  %19 = call i32 @ft_gzip_file_reset(ptr noundef %18)
  store i32 %19, ptr %10, align 4
  %20 = load i32, ptr %10, align 4
  %21 = icmp ne i32 %20, 0
  br i1 %21, label %22, label %23

22:                                               ; preds = %17
  br label %98

23:                                               ; preds = %17
  br label %24

24:                                               ; preds = %23, %4
  %25 = load i64, ptr %6, align 8
  %26 = load ptr, ptr %5, align 8
  %27 = getelementptr inbounds %struct.FT_GZipFileRec_, ptr %26, i32 0, i32 7
  %28 = load i64, ptr %27, align 8
  %29 = icmp ugt i64 %25, %28
  br i1 %29, label %30, label %42

30:                                               ; preds = %24
  %31 = load ptr, ptr %5, align 8
  %32 = load i64, ptr %6, align 8
  %33 = load ptr, ptr %5, align 8
  %34 = getelementptr inbounds %struct.FT_GZipFileRec_, ptr %33, i32 0, i32 7
  %35 = load i64, ptr %34, align 8
  %36 = sub i64 %32, %35
  %37 = call i32 @ft_gzip_file_skip_output(ptr noundef %31, i64 noundef %36)
  store i32 %37, ptr %10, align 4
  %38 = load i32, ptr %10, align 4
  %39 = icmp ne i32 %38, 0
  br i1 %39, label %40, label %41

40:                                               ; preds = %30
  br label %98

41:                                               ; preds = %30
  br label %42

42:                                               ; preds = %41, %24
  %43 = load i64, ptr %8, align 8
  %44 = icmp eq i64 %43, 0
  br i1 %44, label %45, label %46

45:                                               ; preds = %42
  br label %98

46:                                               ; preds = %42
  br label %47

47:                                               ; preds = %96, %46
  %48 = load ptr, ptr %5, align 8
  %49 = getelementptr inbounds %struct.FT_GZipFileRec_, ptr %48, i32 0, i32 9
  %50 = load ptr, ptr %49, align 8
  %51 = load ptr, ptr %5, align 8
  %52 = getelementptr inbounds %struct.FT_GZipFileRec_, ptr %51, i32 0, i32 8
  %53 = load ptr, ptr %52, align 8
  %54 = ptrtoint ptr %50 to i64
  %55 = ptrtoint ptr %53 to i64
  %56 = sub i64 %54, %55
  store i64 %56, ptr %11, align 8
  %57 = load i64, ptr %11, align 8
  %58 = load i64, ptr %8, align 8
  %59 = icmp uge i64 %57, %58
  br i1 %59, label %60, label %62

60:                                               ; preds = %47
  %61 = load i64, ptr %8, align 8
  store i64 %61, ptr %11, align 8
  br label %62

62:                                               ; preds = %60, %47
  %63 = load ptr, ptr %7, align 8
  %64 = load ptr, ptr %5, align 8
  %65 = getelementptr inbounds %struct.FT_GZipFileRec_, ptr %64, i32 0, i32 8
  %66 = load ptr, ptr %65, align 8
  %67 = load i64, ptr %11, align 8
  call void @llvm.memcpy.p0.p0.i64(ptr align 1 %63, ptr align 1 %66, i64 %67, i1 false)
  %68 = load i64, ptr %11, align 8
  %69 = load ptr, ptr %7, align 8
  %70 = getelementptr inbounds i8, ptr %69, i64 %68
  store ptr %70, ptr %7, align 8
  %71 = load i64, ptr %11, align 8
  %72 = load i64, ptr %9, align 8
  %73 = add i64 %72, %71
  store i64 %73, ptr %9, align 8
  %74 = load i64, ptr %11, align 8
  %75 = load ptr, ptr %5, align 8
  %76 = getelementptr inbounds %struct.FT_GZipFileRec_, ptr %75, i32 0, i32 8
  %77 = load ptr, ptr %76, align 8
  %78 = getelementptr inbounds i8, ptr %77, i64 %74
  store ptr %78, ptr %76, align 8
  %79 = load i64, ptr %11, align 8
  %80 = load ptr, ptr %5, align 8
  %81 = getelementptr inbounds %struct.FT_GZipFileRec_, ptr %80, i32 0, i32 7
  %82 = load i64, ptr %81, align 8
  %83 = add i64 %82, %79
  store i64 %83, ptr %81, align 8
  %84 = load i64, ptr %11, align 8
  %85 = load i64, ptr %8, align 8
  %86 = sub i64 %85, %84
  store i64 %86, ptr %8, align 8
  %87 = load i64, ptr %8, align 8
  %88 = icmp eq i64 %87, 0
  br i1 %88, label %89, label %90

89:                                               ; preds = %62
  br label %97

90:                                               ; preds = %62
  %91 = load ptr, ptr %5, align 8
  %92 = call i32 @ft_gzip_file_fill_output(ptr noundef %91)
  store i32 %92, ptr %10, align 4
  %93 = load i32, ptr %10, align 4
  %94 = icmp ne i32 %93, 0
  br i1 %94, label %95, label %96

95:                                               ; preds = %90
  br label %97

96:                                               ; preds = %90
  br label %47

97:                                               ; preds = %95, %89
  br label %98

98:                                               ; preds = %97, %45, %40, %22
  %99 = load i64, ptr %9, align 8
  ret i64 %99
}