; Function Attrs: nounwind uwtable
define internal fastcc i64 @ft_gzip_file_io(ptr noundef %0, i64 noundef %1, ptr nocapture noundef writeonly %2, i64 noundef %3) unnamed_addr #0 {
  %5 = getelementptr inbounds i8, ptr %0, i64 8336
  %6 = load i64, ptr %5, align 8
  %7 = icmp ugt i64 %6, %1
  br i1 %7, label %8, label %22

8:                                                ; preds = %4
  %9 = load ptr, ptr %0, align 8
  %10 = getelementptr inbounds i8, ptr %0, i64 136
  %11 = load i64, ptr %10, align 8
  %12 = tail call i32 @FT_Stream_Seek(ptr noundef %9, i64 noundef %11) #6
  %.not.i = icmp eq i32 %12, 0
  br i1 %.not.i, label %ft_gzip_file_reset.exit.thread, label %ft_gzip_file_reset.exit

ft_gzip_file_reset.exit.thread:                   ; preds = %8
  %13 = getelementptr inbounds i8, ptr %0, i64 24
  %14 = tail call i32 @inflateReset(ptr noundef nonnull %13) #6
  %15 = getelementptr inbounds i8, ptr %0, i64 32
  store i32 0, ptr %15, align 8
  %16 = getelementptr inbounds i8, ptr %0, i64 144
  store ptr %16, ptr %13, align 8
  %17 = getelementptr inbounds i8, ptr %0, i64 56
  store i32 0, ptr %17, align 8
  %18 = getelementptr inbounds i8, ptr %0, i64 4240
  %19 = getelementptr inbounds i8, ptr %0, i64 48
  store ptr %18, ptr %19, align 8
  %20 = getelementptr inbounds i8, ptr %0, i64 8352
  store ptr %5, ptr %20, align 8
  %21 = getelementptr inbounds i8, ptr %0, i64 8344
  store ptr %5, ptr %21, align 8
  store i64 0, ptr %5, align 8
  br label %22

22:                                               ; preds = %ft_gzip_file_reset.exit.thread, %4
  %23 = phi i64 [ 0, %ft_gzip_file_reset.exit.thread ], [ %6, %4 ]
  %24 = icmp ult i64 %23, %1
  br i1 %24, label %25, label %43

25:                                               ; preds = %22
  %26 = sub i64 %1, %23
  %27 = getelementptr inbounds i8, ptr %0, i64 8352
  %28 = getelementptr inbounds i8, ptr %0, i64 8344
  br label %29

29:                                               ; preds = %40, %25
  %.015.i = phi i64 [ %26, %25 ], [ %38, %40 ]
  %30 = load ptr, ptr %27, align 8
  %31 = load ptr, ptr %28, align 8
  %32 = ptrtoint ptr %30 to i64
  %33 = ptrtoint ptr %31 to i64
  %34 = sub i64 %32, %33
  %spec.select.i = tail call i64 @llvm.umin.i64(i64 %34, i64 %.015.i)
  %35 = getelementptr inbounds i8, ptr %31, i64 %spec.select.i
  store ptr %35, ptr %28, align 8
  %36 = load i64, ptr %5, align 8
  %37 = add i64 %spec.select.i, %36
  store i64 %37, ptr %5, align 8
  %38 = sub i64 %.015.i, %spec.select.i
  %39 = icmp eq i64 %38, 0
  br i1 %39, label %ft_gzip_file_skip_output.exit, label %40

40:                                               ; preds = %29
  %41 = tail call fastcc i32 @ft_gzip_file_fill_output(ptr noundef nonnull %0)
  %.not20.i = icmp eq i32 %41, 0
  br i1 %.not20.i, label %29, label %ft_gzip_file_reset.exit

ft_gzip_file_skip_output.exit:                    ; preds = %29
  %42 = icmp eq i64 %3, 0
  br i1 %42, label %ft_gzip_file_reset.exit, label %.preheader

43:                                               ; preds = %22
  %.old1 = icmp eq i64 %3, 0
  br i1 %.old1, label %ft_gzip_file_reset.exit, label %.preheader

.preheader:                                       ; preds = %43, %ft_gzip_file_skip_output.exit
  %44 = getelementptr inbounds i8, ptr %0, i64 8352
  %45 = getelementptr inbounds i8, ptr %0, i64 8344
  br label %46

46:                                               ; preds = %.preheader, %59
  %.036 = phi ptr [ %60, %59 ], [ %2, %.preheader ]
  %.035 = phi i64 [ %57, %59 ], [ %3, %.preheader ]
  %.034 = phi i64 [ %52, %59 ], [ 0, %.preheader ]
  %47 = load ptr, ptr %44, align 8
  %48 = load ptr, ptr %45, align 8
  %49 = ptrtoint ptr %47 to i64
  %50 = ptrtoint ptr %48 to i64
  %51 = sub i64 %49, %50
  %spec.select = tail call i64 @llvm.umin.i64(i64 %51, i64 %.035)
  tail call void @llvm.memcpy.p0.p0.i64(ptr align 1 %.036, ptr align 1 %48, i64 %spec.select, i1 false)
  %52 = add i64 %spec.select, %.034
  %53 = load ptr, ptr %45, align 8
  %54 = getelementptr inbounds i8, ptr %53, i64 %spec.select
  store ptr %54, ptr %45, align 8
  %55 = load i64, ptr %5, align 8
  %56 = add i64 %55, %spec.select
  store i64 %56, ptr %5, align 8
  %57 = sub i64 %.035, %spec.select
  %58 = icmp eq i64 %57, 0
  br i1 %58, label %ft_gzip_file_reset.exit, label %59

59:                                               ; preds = %46
  %60 = getelementptr inbounds i8, ptr %.036, i64 %spec.select
  %61 = tail call fastcc i32 @ft_gzip_file_fill_output(ptr noundef nonnull %0)
  %.not44 = icmp eq i32 %61, 0
  br i1 %.not44, label %46, label %ft_gzip_file_reset.exit

ft_gzip_file_reset.exit:                          ; preds = %40, %46, %59, %8, %43, %ft_gzip_file_skip_output.exit
  %.1 = phi i64 [ 0, %ft_gzip_file_skip_output.exit ], [ 0, %43 ], [ 0, %8 ], [ %52, %59 ], [ %52, %46 ], [ 0, %40 ]
  ret i64 %.1
}